; Function Attrs: uwtable
define void @_ZTv0_n88_N3nix20UDSRemoteStoreConfig3docB5cxx11Ev(ptr dead_on_unwind noalias writable sret(%"class.std::__cxx11::basic_string") align 8 %0, ptr nocapture readonly %1) unnamed_addr #4 align 2 personality ptr @__gxx_personality_v0 {
  %3 = alloca %"class.std::allocator", align 1
  call void @llvm.lifetime.start.p0(i64 1, ptr nonnull %3)
  call void @_ZNSaIcEC1Ev(ptr noundef nonnull align 1 dereferenceable(1) %3) #23, !noalias !4
  invoke void @_ZNSt7__cxx1112basic_stringIcSt11char_traitsIcESaIcEEC2IS3_EEPKcRKS3_(ptr noundef nonnull align 8 dereferenceable(32) %0, ptr noundef nonnull @.str.11, ptr noundef nonnull align 1 dereferenceable(1) %3)
          to label %_ZN3nix20UDSRemoteStoreConfig3docB5cxx11Ev.exit unwind label %4

4:                                                ; preds = %2
  %5 = landingpad { ptr, i32 }
          cleanup
  call void @_ZNSaIcED1Ev(ptr noundef nonnull align 1 dereferenceable(1) %3) #23
  resume { ptr, i32 } %5

_ZN3nix20UDSRemoteStoreConfig3docB5cxx11Ev.exit:  ; preds = %2
  call void @_ZNSaIcED1Ev(ptr noundef nonnull align 1 dereferenceable(1) %3) #23
  call void @llvm.lifetime.end.p0(i64 1, ptr nonnull %3)
  ret void
}